target datalayout = "e-m:e-p270:32:32-p271:32:32-p272:64:64-i64:64-i128:128-f80:128-n8:16:32:64-S128"
target triple = "x86_64-pc-linux-gnu"

; Function Attrs: inlinehint nounwind uwtable
define internal ptr @lean_box(i64 noundef %0) #0 {
  %2 = alloca i64, align 8
  store i64 %0, ptr %2, align 8, !tbaa !8
  %3 = load i64, ptr %2, align 8, !tbaa !8
  %4 = shl i64 %3, 1
  %5 = or i64 %4, 1
  %6 = inttoptr i64 %5 to ptr
  ret ptr %6
}

; Function Attrs: inlinehint nounwind uwtable
define internal ptr @lean_usize_to_nat(i64 noundef %0) #0 {
  %2 = alloca ptr, align 8
  %3 = alloca i64, align 8
  store i64 %0, ptr %3, align 8, !tbaa !8
  %4 = load i64, ptr %3, align 8, !tbaa !8
  %5 = icmp ule i64 %4, 9223372036854775807
  %6 = zext i1 %5 to i32
  %7 = sext i32 %6 to i64
  %8 = call i64 @llvm.expect.i64(i64 %7, i64 1)
  %9 = icmp ne i64 %8, 0
  br i1 %9, label %10, label %13

10:                                               ; preds = %1
  %11 = load i64, ptr %3, align 8, !tbaa !8
  %12 = call ptr @lean_box(i64 noundef %11)
  store ptr %12, ptr %2, align 8
  br label %16

13:                                               ; preds = %1
  %14 = load i64, ptr %3, align 8, !tbaa !8
  %15 = call ptr @lean_big_usize_to_nat(i64 noundef %14)
  store ptr %15, ptr %2, align 8
  br label %16

16:                                               ; preds = %13, %10
  %17 = load ptr, ptr %2, align 8
  ret ptr %17
}

; Function Attrs: inlinehint nounwind uwtable
define internal ptr @lean_unsigned_to_nat(i32 noundef %0) #0 {
  %2 = alloca i32, align 4
  store i32 %0, ptr %2, align 4, !tbaa !11
  %3 = load i32, ptr %2, align 4, !tbaa !11
  %4 = zext i32 %3 to i64
  %5 = call ptr @lean_usize_to_nat(i64 noundef %4)
  ret ptr %5
}

; Function Attrs: nounwind uwtable
define ptr @l_Lean_JsonRpc_ErrorCode_toCtorIdx(i8 noundef zeroext %0) #2 {
  %2 = alloca ptr, align 8
  %3 = alloca i8, align 1
  %4 = alloca ptr, align 8
  %5 = alloca ptr, align 8
  %6 = alloca ptr, align 8
  %7 = alloca ptr, align 8
  %8 = alloca ptr, align 8
  %9 = alloca ptr, align 8
  %10 = alloca ptr, align 8
  %11 = alloca ptr, align 8
  %12 = alloca ptr, align 8
  %13 = alloca ptr, align 8
  %14 = alloca ptr, align 8
  %15 = alloca ptr, align 8
  store i8 %0, ptr %3, align 1, !tbaa !10
  br label %16

16:                                               ; preds = %1
  %17 = load i8, ptr %3, align 1, !tbaa !10
  %18 = zext i8 %17 to i32
  switch i32 %18, label %52 [
    i32 0, label %19
    i32 1, label %22
    i32 2, label %25
    i32 3, label %28
    i32 4, label %31
    i32 5, label %34
    i32 6, label %37
    i32 7, label %40
    i32 8, label %43
    i32 9, label %46
    i32 10, label %49
  ]

19:                                               ; preds = %16
  call void @llvm.lifetime.start.p0(i64 8, ptr %4) #7
  %20 = call ptr @lean_unsigned_to_nat(i32 noundef 0)
  store ptr %20, ptr %4, align 8, !tbaa !4
  %21 = load ptr, ptr %4, align 8, !tbaa !4
  store ptr %21, ptr %2, align 8
  call void @llvm.lifetime.end.p0(i64 8, ptr %4) #7
  br label %55

22:                                               ; preds = %16
  call void @llvm.lifetime.start.p0(i64 8, ptr %5) #7
  %23 = call ptr @lean_unsigned_to_nat(i32 noundef 1)
  store ptr %23, ptr %5, align 8, !tbaa !4
  %24 = load ptr, ptr %5, align 8, !tbaa !4
  store ptr %24, ptr %2, align 8
  call void @llvm.lifetime.end.p0(i64 8, ptr %5) #7
  br label %55

25:                                               ; preds = %16
  call void @llvm.lifetime.start.p0(i64 8, ptr %6) #7
  %26 = call ptr @lean_unsigned_to_nat(i32 noundef 2)
  store ptr %26, ptr %6, align 8, !tbaa !4
  %27 = load ptr, ptr %6, align 8, !tbaa !4
  store ptr %27, ptr %2, align 8
  call void @llvm.lifetime.end.p0(i64 8, ptr %6) #7
  br label %55

28:                                               ; preds = %16
  call void @llvm.lifetime.start.p0(i64 8, ptr %7) #7
  %29 = call ptr @lean_unsigned_to_nat(i32 noundef 3)
  store ptr %29, ptr %7, align 8, !tbaa !4
  %30 = load ptr, ptr %7, align 8, !tbaa !4
  store ptr %30, ptr %2, align 8
  call void @llvm.lifetime.end.p0(i64 8, ptr %7) #7
  br label %55

31:                                               ; preds = %16
  call void @llvm.lifetime.start.p0(i64 8, ptr %8) #7
  %32 = call ptr @lean_unsigned_to_nat(i32 noundef 4)
  store ptr %32, ptr %8, align 8, !tbaa !4
  %33 = load ptr, ptr %8, align 8, !tbaa !4
  store ptr %33, ptr %2, align 8
  call void @llvm.lifetime.end.p0(i64 8, ptr %8) #7
  br label %55

34:                                               ; preds = %16
  call void @llvm.lifetime.start.p0(i64 8, ptr %9) #7
  %35 = call ptr @lean_unsigned_to_nat(i32 noundef 5)
  store ptr %35, ptr %9, align 8, !tbaa !4
  %36 = load ptr, ptr %9, align 8, !tbaa !4
  store ptr %36, ptr %2, align 8
  call void @llvm.lifetime.end.p0(i64 8, ptr %9) #7
  br label %55

37:                                               ; preds = %16
  call void @llvm.lifetime.start.p0(i64 8, ptr %10) #7
  %38 = call ptr @lean_unsigned_to_nat(i32 noundef 6)
  store ptr %38, ptr %10, align 8, !tbaa !4
  %39 = load ptr, ptr %10, align 8, !tbaa !4
  store ptr %39, ptr %2, align 8
  call void @llvm.lifetime.end.p0(i64 8, ptr %10) #7
  br label %55

40:                                               ; preds = %16
  call void @llvm.lifetime.start.p0(i64 8, ptr %11) #7
  %41 = call ptr @lean_unsigned_to_nat(i32 noundef 7)
  store ptr %41, ptr %11, align 8, !tbaa !4
  %42 = load ptr, ptr %11, align 8, !tbaa !4
  store ptr %42, ptr %2, align 8
  call void @llvm.lifetime.end.p0(i64 8, ptr %11) #7
  br label %55

43:                                               ; preds = %16
  call void @llvm.lifetime.start.p0(i64 8, ptr %12) #7
  %44 = call ptr @lean_unsigned_to_nat(i32 noundef 8)
  store ptr %44, ptr %12, align 8, !tbaa !4
  %45 = load ptr, ptr %12, align 8, !tbaa !4
  store ptr %45, ptr %2, align 8
  call void @llvm.lifetime.end.p0(i64 8, ptr %12) #7
  br label %55

46:                                               ; preds = %16
  call void @llvm.lifetime.start.p0(i64 8, ptr %13) #7
  %47 = call ptr @lean_unsigned_to_nat(i32 noundef 9)
  store ptr %47, ptr %13, align 8, !tbaa !4
  %48 = load ptr, ptr %13, align 8, !tbaa !4
  store ptr %48, ptr %2, align 8
  call void @llvm.lifetime.end.p0(i64 8, ptr %13) #7
  br label %55

49:                                               ; preds = %16
  call void @llvm.lifetime.start.p0(i64 8, ptr %14) #7
  %50 = call ptr @lean_unsigned_to_nat(i32 noundef 10)
  store ptr %50, ptr %14, align 8, !tbaa !4
  %51 = load ptr, ptr %14, align 8, !tbaa !4
  store ptr %51, ptr %2, align 8
  call void @llvm.lifetime.end.p0(i64 8, ptr %14) #7
  br label %55

52:                                               ; preds = %16
  call void @llvm.lifetime.start.p0(i64 8, ptr %15) #7
  %53 = call ptr @lean_unsigned_to_nat(i32 noundef 11)
  store ptr %53, ptr %15, align 8, !tbaa !4
  %54 = load ptr, ptr %15, align 8, !tbaa !4
  store ptr %54, ptr %2, align 8
  call void @llvm.lifetime.end.p0(i64 8, ptr %15) #7
  br label %55

55:                                               ; preds = %52, %49, %46, %43, %40, %37, %34, %31, %28, %25, %22, %19
  %56 = load ptr, ptr %2, align 8
  ret ptr %56
}