; Function Attrs: mustprogress nofree norecurse nosync nounwind willreturn memory(none) uwtable
define noundef nonnull ptr @l_Lean_JsonRpc_ErrorCode_toCtorIdx(i8 noundef zeroext %0) local_unnamed_addr #3 {
  switch i8 %0, label %12 [
    i8 0, label %13
    i8 1, label %2
    i8 2, label %3
    i8 3, label %4
    i8 4, label %5
    i8 5, label %6
    i8 6, label %7
    i8 7, label %8
    i8 8, label %9
    i8 9, label %10
    i8 10, label %11
  ]

2:                                                ; preds = %1
  br label %13

3:                                                ; preds = %1
  br label %13

4:                                                ; preds = %1
  br label %13

5:                                                ; preds = %1
  br label %13

6:                                                ; preds = %1
  br label %13

7:                                                ; preds = %1
  br label %13

8:                                                ; preds = %1
  br label %13

9:                                                ; preds = %1
  br label %13

10:                                               ; preds = %1
  br label %13

11:                                               ; preds = %1
  br label %13

12:                                               ; preds = %1
  br label %13

13:                                               ; preds = %1, %12, %11, %10, %9, %8, %7, %6, %5, %4, %3, %2
  %.0 = phi ptr [ inttoptr (i64 23 to ptr), %12 ], [ inttoptr (i64 21 to ptr), %11 ], [ inttoptr (i64 19 to ptr), %10 ], [ inttoptr (i64 17 to ptr), %9 ], [ inttoptr (i64 15 to ptr), %8 ], [ inttoptr (i64 13 to ptr), %7 ], [ inttoptr (i64 11 to ptr), %6 ], [ inttoptr (i64 9 to ptr), %5 ], [ inttoptr (i64 7 to ptr), %4 ], [ inttoptr (i64 5 to ptr), %3 ], [ inttoptr (i64 3 to ptr), %2 ], [ inttoptr (i64 1 to ptr), %1 ]
  ret ptr %.0
}